target datalayout = "e-m:e-p270:32:32-p271:32:32-p272:64:64-i64:64-i128:128-f80:128-n8:16:32:64-S128"
target triple = "x86_64-pc-linux-gnu"

%struct.pmix_lock_t = type { i32, %struct.pmix_mutex_t, %union.pthread_cond_t, i8 }
%struct.pmix_mutex_t = type { %struct.pmix_object_t, %union.pthread_mutex_t }
%struct.pmix_object_t = type { %union.pthread_mutex_t, ptr, i32, %struct.pmix_tma }
%struct.pmix_tma = type { ptr, ptr, ptr, ptr, ptr, ptr, ptr, ptr }
%union.pthread_mutex_t = type { %struct.__pthread_mutex_s }
%struct.__pthread_mutex_s = type { i32, i32, i32, i32, i32, i16, i16, %struct.__pthread_internal_list }
%struct.__pthread_internal_list = type { ptr, ptr }
%union.pthread_cond_t = type { %struct.__pthread_cond_s }
%struct.__pthread_cond_s = type { %union.__atomic_wide_counter, %union.__atomic_wide_counter, [2 x i32], [2 x i32], i32, i32, [2 x i32] }
%union.__atomic_wide_counter = type { i64 }
%struct.timeval = type { i64, i64 }
%struct.pmix_rshift_caddy_t = type { %struct.pmix_object_t, i8, %struct.event, %struct.pmix_lock_t, i32, i64, i8, i8, ptr, ptr, ptr, ptr, i64, ptr, i64, ptr, i64, ptr, ptr, ptr }
%struct.event = type { %struct.event_callback, %union.anon.2, i32, ptr, %union.anon.4, i16, i16, %struct.timeval }
%struct.event_callback = type { %struct.anon.0, i16, i8, i8, %union.anon.1, ptr }
%struct.anon.0 = type { ptr, ptr }
%union.anon.1 = type { ptr }
%union.anon.2 = type { %struct.anon.3 }
%struct.anon.3 = type { ptr, ptr }
%union.anon.4 = type { %struct.anon.5 }
%struct.anon.5 = type { %struct.anon.6, %struct.timeval }
%struct.anon.6 = type { ptr, ptr }

; Function Attrs: inlinehint nounwind uwtable
define internal void @pmix_mutex_unlock(ptr noundef %0) #2 {
  %2 = alloca ptr, align 8
  store ptr %0, ptr %2, align 8, !tbaa !86
  %3 = load ptr, ptr %2, align 8, !tbaa !86
  %4 = getelementptr inbounds nuw %struct.pmix_mutex_t, ptr %3, i32 0, i32 1
  %5 = call i32 @pthread_mutex_unlock(ptr noundef %4) #12
  ret void
}

; Function Attrs: inlinehint nounwind uwtable
define internal void @pmix_atomic_wmb() #2 {
  fence release
  ret void
}

; Function Attrs: inlinehint nounwind uwtable
define internal void @pmix_mutex_lock(ptr noundef %0) #2 {
  %2 = alloca ptr, align 8
  store ptr %0, ptr %2, align 8, !tbaa !86
  %3 = load ptr, ptr %2, align 8, !tbaa !86
  %4 = getelementptr inbounds nuw %struct.pmix_mutex_t, ptr %3, i32 0, i32 1
  %5 = call i32 @pthread_mutex_lock(ptr noundef %4) #12
  ret void
}

; Function Attrs: inlinehint nounwind uwtable
define internal void @pmix_atomic_rmb() #2 {
  fence acquire
  ret void
}

; Function Attrs: nounwind uwtable
define internal void @mycbfn(i32 noundef %0, i64 noundef %1, ptr noundef %2) #0 {
  %4 = alloca i32, align 4
  %5 = alloca i64, align 8
  %6 = alloca ptr, align 8
  %7 = alloca ptr, align 8
  store i32 %0, ptr %4, align 4, !tbaa !7
  store i64 %1, ptr %5, align 8, !tbaa !53
  store ptr %2, ptr %6, align 8, !tbaa !3
  call void @llvm.lifetime.start.p0(i64 8, ptr %7) #12
  %8 = load ptr, ptr %6, align 8, !tbaa !3
  store ptr %8, ptr %7, align 8, !tbaa !3
  call void @pmix_atomic_rmb()
  %9 = load i32, ptr %4, align 4, !tbaa !7
  %10 = icmp eq i32 0, %9
  br i1 %10, label %11, label %16

11:                                               ; preds = %3
  %12 = load i64, ptr %5, align 8, !tbaa !53
  %13 = trunc i64 %12 to i32
  %14 = load ptr, ptr %7, align 8, !tbaa !3
  %15 = getelementptr inbounds nuw %struct.pmix_rshift_caddy_t, ptr %14, i32 0, i32 4
  store i32 %13, ptr %15, align 8, !tbaa !85
  br label %20

16:                                               ; preds = %3
  %17 = load i32, ptr %4, align 4, !tbaa !7
  %18 = load ptr, ptr %7, align 8, !tbaa !3
  %19 = getelementptr inbounds nuw %struct.pmix_rshift_caddy_t, ptr %18, i32 0, i32 4
  store i32 %17, ptr %19, align 8, !tbaa !85
  br label %20

20:                                               ; preds = %16, %11
  br label %21

21:                                               ; preds = %20
  %22 = load ptr, ptr %7, align 8, !tbaa !3
  %23 = getelementptr inbounds nuw %struct.pmix_rshift_caddy_t, ptr %22, i32 0, i32 3
  %24 = getelementptr inbounds nuw %struct.pmix_lock_t, ptr %23, i32 0, i32 1
  call void @pmix_mutex_lock(ptr noundef %24)
  %25 = load ptr, ptr %7, align 8, !tbaa !3
  %26 = getelementptr inbounds nuw %struct.pmix_rshift_caddy_t, ptr %25, i32 0, i32 3
  %27 = getelementptr inbounds nuw %struct.pmix_lock_t, ptr %26, i32 0, i32 3
  store volatile i8 0, ptr %27, align 8, !tbaa !18
  call void @pmix_atomic_wmb()
  %28 = load ptr, ptr %7, align 8, !tbaa !3
  %29 = getelementptr inbounds nuw %struct.pmix_rshift_caddy_t, ptr %28, i32 0, i32 3
  %30 = getelementptr inbounds nuw %struct.pmix_lock_t, ptr %29, i32 0, i32 2
  %31 = call i32 @pthread_cond_broadcast(ptr noundef %30) #12
  %32 = load ptr, ptr %7, align 8, !tbaa !3
  %33 = getelementptr inbounds nuw %struct.pmix_rshift_caddy_t, ptr %32, i32 0, i32 3
  %34 = getelementptr inbounds nuw %struct.pmix_lock_t, ptr %33, i32 0, i32 1
  call void @pmix_mutex_unlock(ptr noundef %34)
  br label %35

35:                                               ; preds = %21
  br label %36

36:                                               ; preds = %35
  call void @llvm.lifetime.end.p0(i64 8, ptr %7) #12
  ret void
}